(dp0
S'path'
p1
S'/'
p2
sS'domain'
p3
S'.baidu.com'
p4
sS'name'
p5
S'BDUSS'
p6
sS'value'
p7
S'nR2b20tNllmNTlTYlo0d0xVZFY5emEybXJNWlBuQ0k0anNONEFEZXZGYmcwWEJYQVFBQUFBJCQAAAAAAAAAAAEAAACPJtkIYnVwdHp5bQAAAAAAAAAAAAAAAAAAAAAAAAAAAAAAAAAAAAAAAAAAAAAAAAAAAAAAAAAAAAAAAAAAAAAAAAAAAOBESVfgRElXV'
p8
sS'expiry'
p9
I1751370498
s.