(dp0
S'path'
p1
S'/'
p2
sS'domain'
p3
S'.baidu.com'
p4
sS'name'
p5
S'BDUSS'
p6
sS'value'
p7
S'C1DSUZMTFo0cE1td0taejhSczI4VXRtRkxzR2N0NU9vM1hWV1JzM2IxcjJ5eXRZSVFBQUFBJCQAAAAAAAAAAAEAAAAxkTMAZGVtb24xMTkAAAAAAAAAAAAAAAAAAAAAAAAAAAAAAAAAAAAAAAAAAAAAAAAAAAAAAAAAAAAAAAAAAAAAAAAAAPY-BFj2PgRYU'
p8
sS'expiry'
p9
I1751370498
s.