(dp0
S'path'
p1
S'/'
p2
sS'domain'
p3
S'.baidu.com'
p4
sS'name'
p5
S'BDUSS'
p6
sS'value'
p7
S'E41M0tUZHNFbUx1QldXdWxlalFTT3o5VThUUThlM1VOQkhZUXJyYkZLcjVhRVZZSVFBQUFBJCQAAAAAAAAAAAEAAABmVuJWd2VibWFzdGVydnBzAAAAAAAAAAAAAAAAAAAAAAAAAAAAAAAAAAAAAAAAAAAAAAAAAAAAAAAAAAAAAAAAAAAAAPnbHVj52x1YO'
p8
sS'expiry'
p9
I1751370498
s.