(dp0
S'path'
p1
S'/'
p2
sS'domain'
p3
S'.baidu.com'
p4
sS'name'
p5
S'BDUSS'
p6
sS'value'
p7
S'095WUo4VVctaHhVM2VTaW9hZDBYSDBMVlpUYUZBbFF-S2F3VGYxZXUyNTMxSHBZSVFBQUFBJCQAAAAAAAAAAAEAAABGR5Ibsa-wp7XEYWJjAAAAAAAAAAAAAAAAAAAAAAAAAAAAAAAAAAAAAAAAAAAAAAAAAAAAAAAAAAAAAAAAAAAAAAAAAHdHU1h3R1NYY'
p8
sS'expiry'
p9
I1751370498
s.