(dp0
S'path'
p1
S'/'
p2
sS'domain'
p3
S'.baidu.com'
p4
sS'name'
p5
S'BDUSS'
p6
sS'value'
p7
S'4tcGMxYzd-dm94ZzhzaTNqenptWVlpWFFGeUh5OGR1ZTRFMnhwNnRJekdEV0ZZSVFBQUFBJCQAAAAAAAAAAAEAAACevjl7vvTYvMq~2LwAAAAAAAAAAAAAAAAAAAAAAAAAAAAAAAAAAAAAAAAAAAAAAAAAAAAAAAAAAAAAAAAAAAAAAAAAAMaAOVjGgDlYY2'
p8
sS'expiry'
p9
I1751370498
s.